; Function Attrs: mustprogress ssp uwtable
define void @_ZN6open3d13visualization29VisualizerWithCustomAnimation19MouseScrollCallbackEP10GLFWwindowdd(ptr noundef nonnull align 8 dereferenceable(656) %0, ptr noundef %1, double noundef %2, double noundef %3) unnamed_addr #2 align 2 {
  %5 = getelementptr inbounds nuw i8, ptr %0, i64 192
  %6 = load ptr, ptr %5, align 8, !tbaa !71
  %7 = getelementptr inbounds nuw i8, ptr %6, i64 728
  %8 = load i32, ptr %7, align 8, !tbaa !107
  switch i32 %8, label %20 [
    i32 1, label %9
    i32 2, label %21
  ]

9:                                                ; preds = %4
  %10 = tail call i32 @glfwGetKey(ptr noundef %1, i32 noundef 341)
  %11 = icmp eq i32 %10, 1
  br i1 %11, label %15, label %12

12:                                               ; preds = %9
  %13 = tail call i32 @glfwGetKey(ptr noundef %1, i32 noundef 345)
  %14 = icmp eq i32 %13, 1
  br i1 %14, label %15, label %21

15:                                               ; preds = %12, %9
  tail call void @_ZN6open3d13visualization30ViewControlWithCustomAnimation4StepEd(ptr noundef nonnull align 16 dereferenceable(816) %6, double noundef %3)
  %16 = getelementptr inbounds nuw i8, ptr %0, i64 168
  store i8 1, ptr %16, align 8, !tbaa !124
  %17 = load ptr, ptr %0, align 8, !tbaa !102
  %18 = getelementptr inbounds nuw i8, ptr %17, i64 96
  %19 = load ptr, ptr %18, align 8
  tail call void %19(ptr noundef nonnull align 8 dereferenceable(656) %0)
  br label %21

20:                                               ; preds = %4
  tail call void @_ZN6open3d13visualization10Visualizer19MouseScrollCallbackEP10GLFWwindowdd(ptr noundef nonnull align 8 dereferenceable(456) %0, ptr noundef %1, double noundef %2, double noundef %3)
  br label %21

21:                                               ; preds = %4, %20, %12, %15
  ret void
}